target datalayout = "e-m:e-p270:32:32-p271:32:32-p272:64:64-i64:64-i128:128-f80:128-n8:16:32:64-S128"
target triple = "x86_64-unknown-linux-gnu"

@_ZTIN6icu_7510DateFormatE = external constant ptr
@_ZTIN6icu_7516SimpleDateFormatE = external constant ptr

; Function Attrs: mustprogress nounwind uwtable
define internal noundef signext i8 @_ZL9U_SUCCESS10UErrorCode(i32 noundef %code) #0 {
entry:
  %code.addr = alloca i32, align 4
  store i32 %code, ptr %code.addr, align 4
  %0 = load i32, ptr %code.addr, align 4
  %cmp = icmp sle i32 %0, 0
  %conv = zext i1 %cmp to i8
  ret i8 %conv
}

; Function Attrs: mustprogress nounwind uwtable
define internal noundef signext i8 @_ZL9U_FAILURE10UErrorCode(i32 noundef %code) #0 {
entry:
  %code.addr = alloca i32, align 4
  store i32 %code, ptr %code.addr, align 4
  %0 = load i32, ptr %code.addr, align 4
  %cmp = icmp sgt i32 %0, 0
  %conv = zext i1 %cmp to i8
  ret i8 %conv
}

; Function Attrs: mustprogress uwtable
define internal void @_ZL24verifyIsSimpleDateFormatPKPvP10UErrorCode(ptr noundef %fmt, ptr noundef %status) #1 {
entry:
  %fmt.addr = alloca ptr, align 8
  %status.addr = alloca ptr, align 8
  store ptr %fmt, ptr %fmt.addr, align 8
  store ptr %status, ptr %status.addr, align 8
  %0 = load ptr, ptr %status.addr, align 8
  %1 = load i32, ptr %0, align 4
  %call = call noundef signext i8 @_ZL9U_SUCCESS10UErrorCode(i32 noundef %1)
  %tobool = icmp ne i8 %call, 0
  br i1 %tobool, label %land.lhs.true, label %if.end

land.lhs.true:                                    ; preds = %entry
  %2 = load ptr, ptr %fmt.addr, align 8
  %3 = icmp eq ptr %2, null
  br i1 %3, label %dynamic_cast.null, label %dynamic_cast.notnull

dynamic_cast.notnull:                             ; preds = %land.lhs.true
  %4 = call ptr @__dynamic_cast(ptr %2, ptr @_ZTIN6icu_7510DateFormatE, ptr @_ZTIN6icu_7516SimpleDateFormatE, i64 0) #6
  br label %dynamic_cast.end

dynamic_cast.null:                                ; preds = %land.lhs.true
  br label %dynamic_cast.end

dynamic_cast.end:                                 ; preds = %dynamic_cast.null, %dynamic_cast.notnull
  %5 = phi ptr [ %4, %dynamic_cast.notnull ], [ null, %dynamic_cast.null ]
  %cmp = icmp eq ptr %5, null
  br i1 %cmp, label %if.then, label %if.end

if.then:                                          ; preds = %dynamic_cast.end
  %6 = load ptr, ptr %status.addr, align 8
  store i32 1, ptr %6, align 4
  br label %if.end

if.end:                                           ; preds = %if.then, %dynamic_cast.end, %entry
  ret void
}

; Function Attrs: mustprogress uwtable
define void @udat_set2DigitYearStart_75(ptr noundef %fmt, double noundef %d, ptr noundef %status) #1 {
entry:
  %fmt.addr = alloca ptr, align 8
  %d.addr = alloca double, align 8
  %status.addr = alloca ptr, align 8
  store ptr %fmt, ptr %fmt.addr, align 8
  store double %d, ptr %d.addr, align 8
  store ptr %status, ptr %status.addr, align 8
  %0 = load ptr, ptr %fmt.addr, align 8
  %1 = load ptr, ptr %status.addr, align 8
  call void @_ZL24verifyIsSimpleDateFormatPKPvP10UErrorCode(ptr noundef %0, ptr noundef %1)
  %2 = load ptr, ptr %status.addr, align 8
  %3 = load i32, ptr %2, align 4
  %call = call noundef signext i8 @_ZL9U_FAILURE10UErrorCode(i32 noundef %3)
  %tobool = icmp ne i8 %call, 0
  br i1 %tobool, label %if.then, label %if.end

if.then:                                          ; preds = %entry
  br label %return

if.end:                                           ; preds = %entry
  %4 = load ptr, ptr %fmt.addr, align 8
  %5 = load double, ptr %d.addr, align 8
  %6 = load ptr, ptr %status.addr, align 8
  %vtable = load ptr, ptr %4, align 8
  %vfn = getelementptr inbounds ptr, ptr %vtable, i64 29
  %7 = load ptr, ptr %vfn, align 8
  call void %7(ptr noundef nonnull align 8 dereferenceable(832) %4, double noundef %5, ptr noundef nonnull align 4 dereferenceable(4) %6)
  br label %return

return:                                           ; preds = %if.end, %if.then
  ret void
}