; Function Attrs: mustprogress uwtable
define void @udat_set2DigitYearStart_75(ptr noundef %fmt, double noundef %d, ptr noundef %status) local_unnamed_addr #1 {
entry:
  %0 = load i32, ptr %status, align 4
  %cmp.i.i = icmp sgt i32 %0, 0
  br i1 %cmp.i.i, label %return, label %land.lhs.true.i

land.lhs.true.i:                                  ; preds = %entry
  %1 = icmp eq ptr %fmt, null
  br i1 %1, label %if.then.i, label %dynamic_cast.notnull.i

dynamic_cast.notnull.i:                           ; preds = %land.lhs.true.i
  %2 = tail call ptr @__dynamic_cast(ptr nonnull %fmt, ptr nonnull @_ZTIN6icu_7510DateFormatE, ptr nonnull @_ZTIN6icu_7516SimpleDateFormatE, i64 0) #7
  %3 = icmp eq ptr %2, null
  br i1 %3, label %if.then.i, label %if.end

if.then.i:                                        ; preds = %dynamic_cast.notnull.i, %land.lhs.true.i
  store i32 1, ptr %status, align 4
  br label %return

if.end:                                           ; preds = %dynamic_cast.notnull.i
  %vtable = load ptr, ptr %fmt, align 8
  %vfn = getelementptr inbounds i8, ptr %vtable, i64 232
  %4 = load ptr, ptr %vfn, align 8
  tail call void %4(ptr noundef nonnull align 8 dereferenceable(832) %fmt, double noundef %d, ptr noundef nonnull align 4 dereferenceable(4) %status)
  br label %return

return:                                           ; preds = %if.then.i, %entry, %if.end
  ret void
}